(dp0
S'ALG_DESC'
p1
VTrim Dangles
p2
sS'Threshold_Field_Optional'
p3
VOptional parameter to remove dangles based on a threshold of an attribute
p4
sS'ALG_CREATOR'
p5
VBjorn Burr Nyberg\u000abjorn.nyberg@uni.no
p6
sS'Groupby_Field'
p7
V
p8
sS'Threshold'
p9
VThreshold for loops
p10
sS'Polyline'
p11
g8
sS'Loops'
p12
VNumber of iterations to trim nodes where its connection to other nodes is < Threhsold
p13
sS'Voronoi_Lines'
p14
g8
s.